target datalayout = "e-m:e-p270:32:32-p271:32:32-p272:64:64-i64:64-i128:128-f80:128-n8:16:32:64-S128"
target triple = "x86_64-pc-linux-gnu"

%struct._php_ps_globals = type { ptr, ptr, ptr, ptr, ptr, i64, ptr, ptr, ptr, i8, i8, ptr, ptr, ptr, i32, ptr, i32, i32, %struct._php_random_status_state_pcgoneseq128xslrr64, %struct._php_random_algo_with_state, i64, i64, i64, i64, %struct.anon, ptr, i8, i8, i8, i8, i8, i8, i8, i8, ptr, %struct._zval_struct, i64, i64, ptr, ptr, ptr, i64, double, i8, i8, i8, i8, i8, i8, ptr }
%struct._php_random_status_state_pcgoneseq128xslrr64 = type { i128 }
%struct._php_random_algo_with_state = type { ptr, ptr }
%struct.anon = type { %struct._zval_struct, %struct._zval_struct, %struct._zval_struct, %struct._zval_struct, %struct._zval_struct, %struct._zval_struct, %struct._zval_struct, %struct._zval_struct, %struct._zval_struct }
%struct._zval_struct = type { %union._zend_value, %union.anon, %union.anon.3 }
%union._zend_value = type { i64 }
%union.anon = type { i32 }
%union.anon.3 = type { i32 }
%struct._zend_array = type { %struct._zend_refcounted_h, %union.anon.5, i32, %union.anon.7, i32, i32, i32, i32, i64, ptr }
%struct._zend_refcounted_h = type { i32, %union.anon.4 }
%union.anon.4 = type { i32 }
%union.anon.5 = type { i32 }
%union.anon.7 = type { ptr }
%struct._zend_reference = type { %struct._zend_refcounted_h, %struct._zval_struct, %union.zend_property_info_source_list }
%union.zend_property_info_source_list = type { ptr }
%struct._zend_string = type { %struct._zend_refcounted_h, i64, i64, [1 x i8] }
%struct.smart_str = type { ptr, i64 }
%struct._Bucket = type { %struct._zval_struct, i64, ptr }

@ps_globals = global %struct._php_ps_globals zeroinitializer, align 16
@.str.3 = private unnamed_addr constant [25 x i8] c"Skipping numeric key %ld\00", align 1

; Function Attrs: nounwind uwtable
define ptr @php_get_session_var(ptr noundef %0) #0 {
  %2 = alloca ptr, align 8
  %3 = alloca ptr, align 8
  %4 = alloca ptr, align 8
  %5 = alloca ptr, align 8
  store ptr %0, ptr %5, align 8
  store ptr getelementptr inbounds (%struct._php_ps_globals, ptr @ps_globals, i32 0, i32 35), ptr %2, align 8
  %6 = load ptr, ptr %2, align 8
  %7 = getelementptr inbounds %struct._zval_struct, ptr %6, i32 0, i32 1
  %8 = load i8, ptr %7, align 8
  %9 = zext i8 %8 to i32
  %10 = icmp eq i32 %9, 10
  br i1 %10, label %11, label %26

11:                                               ; preds = %1
  %12 = load ptr, ptr getelementptr inbounds (%struct._php_ps_globals, ptr @ps_globals, i32 0, i32 35), align 8
  %13 = getelementptr inbounds %struct._zend_reference, ptr %12, i32 0, i32 1
  store ptr %13, ptr %3, align 8
  %14 = load ptr, ptr %3, align 8
  %15 = getelementptr inbounds %struct._zval_struct, ptr %14, i32 0, i32 1
  %16 = load i8, ptr %15, align 8
  %17 = zext i8 %16 to i32
  %18 = icmp eq i32 %17, 7
  br i1 %18, label %19, label %26

19:                                               ; preds = %11
  %20 = load ptr, ptr getelementptr inbounds (%struct._php_ps_globals, ptr @ps_globals, i32 0, i32 35), align 8
  %21 = getelementptr inbounds %struct._zend_reference, ptr %20, i32 0, i32 1
  %22 = getelementptr inbounds %struct._zval_struct, ptr %21, i32 0, i32 0
  %23 = load ptr, ptr %22, align 8
  %24 = load ptr, ptr %5, align 8
  %25 = call ptr @zend_hash_find(ptr noundef %23, ptr noundef %24)
  store ptr %25, ptr %4, align 8
  br label %27

26:                                               ; preds = %11, %1
  store ptr null, ptr %4, align 8
  br label %27

27:                                               ; preds = %26, %19
  %28 = load ptr, ptr %4, align 8
  ret ptr %28
}

; Function Attrs: nounwind uwtable
define hidden ptr @ps_srlzr_encode_php_binary() #0 {
  %1 = alloca ptr, align 8
  %2 = alloca i64, align 8
  %3 = alloca i8, align 1
  %4 = alloca ptr, align 8
  %5 = alloca ptr, align 8
  %6 = alloca i64, align 8
  %7 = alloca i8, align 1
  %8 = alloca i64, align 8
  %9 = alloca ptr, align 8
  %10 = alloca i64, align 8
  %11 = alloca i8, align 1
  %12 = alloca ptr, align 8
  %13 = alloca i8, align 1
  %14 = alloca i8, align 1
  %15 = alloca i64, align 8
  %16 = alloca ptr, align 8
  %17 = alloca ptr, align 8
  %18 = alloca ptr, align 8
  %19 = alloca i64, align 8
  %20 = alloca ptr, align 8
  %21 = alloca i8, align 1
  %22 = alloca ptr, align 8
  %23 = alloca %struct.smart_str, align 8
  %24 = alloca ptr, align 8
  %25 = alloca ptr, align 8
  %26 = alloca i64, align 8
  %27 = alloca ptr, align 8
  %28 = alloca ptr, align 8
  %29 = alloca ptr, align 8
  %30 = alloca i64, align 8
  %31 = alloca ptr, align 8
  %32 = alloca i32, align 4
  %33 = alloca i64, align 8
  %34 = alloca ptr, align 8
  %35 = alloca i32, align 4
  %36 = alloca ptr, align 8
  %37 = alloca ptr, align 8
  call void @llvm.memset.p0.i64(ptr align 8 %23, i8 0, i64 16, i1 false)
  %38 = call ptr @php_var_serialize_init()
  store ptr %38, ptr %24, align 8
  br label %39

39:                                               ; preds = %0
  %40 = load ptr, ptr getelementptr inbounds (%struct._php_ps_globals, ptr @ps_globals, i32 0, i32 35), align 8
  %41 = getelementptr inbounds %struct._zend_reference, ptr %40, i32 0, i32 1
  %42 = getelementptr inbounds %struct._zval_struct, ptr %41, i32 0, i32 0
  %43 = load ptr, ptr %42, align 8
  store ptr %43, ptr %28, align 8
  br label %44

44:                                               ; preds = %39
  %45 = load ptr, ptr %28, align 8
  store ptr %45, ptr %29, align 8
  store ptr null, ptr %31, align 8
  store i32 0, ptr %32, align 4
  %46 = load ptr, ptr %29, align 8
  %47 = getelementptr inbounds %struct._zend_array, ptr %46, i32 0, i32 1
  %48 = load i32, ptr %47, align 8
  %49 = xor i32 %48, -1
  %50 = and i32 %49, 4
  %51 = zext i32 %50 to i64
  %52 = mul i64 %51, 4
  %53 = add i64 16, %52
  store i64 %53, ptr %33, align 8
  %54 = load ptr, ptr %29, align 8
  %55 = getelementptr inbounds %struct._zend_array, ptr %54, i32 0, i32 3
  %56 = load ptr, ptr %55, align 8
  %57 = load i32, ptr %32, align 4
  %58 = zext i32 %57 to i64
  %59 = load i64, ptr %33, align 8
  %60 = mul i64 %58, %59
  %61 = getelementptr inbounds i8, ptr %56, i64 %60
  store ptr %61, ptr %34, align 8
  %62 = load ptr, ptr %29, align 8
  %63 = getelementptr inbounds %struct._zend_array, ptr %62, i32 0, i32 4
  %64 = load i32, ptr %63, align 8
  %65 = load i32, ptr %32, align 4
  %66 = sub i32 %64, %65
  store i32 %66, ptr %35, align 4
  br label %67

67:                                               ; preds = %237, %44
  %68 = load i32, ptr %35, align 4
  %69 = icmp ugt i32 %68, 0
  br i1 %69, label %70, label %240

70:                                               ; preds = %67
  %71 = load ptr, ptr %34, align 8
  store ptr %71, ptr %36, align 8
  %72 = load ptr, ptr %29, align 8
  %73 = getelementptr inbounds %struct._zend_array, ptr %72, i32 0, i32 1
  %74 = load i32, ptr %73, align 8
  %75 = and i32 %74, 4
  %76 = icmp ne i32 %75, 0
  br i1 %76, label %77, label %84

77:                                               ; preds = %70
  %78 = load ptr, ptr %34, align 8
  %79 = getelementptr inbounds %struct._zval_struct, ptr %78, i32 1
  store ptr %79, ptr %34, align 8
  %80 = load i32, ptr %32, align 4
  %81 = zext i32 %80 to i64
  store i64 %81, ptr %30, align 8
  %82 = load i32, ptr %32, align 4
  %83 = add i32 %82, 1
  store i32 %83, ptr %32, align 4
  br label %95

84:                                               ; preds = %70
  %85 = load ptr, ptr %34, align 8
  store ptr %85, ptr %37, align 8
  %86 = load ptr, ptr %37, align 8
  %87 = getelementptr inbounds %struct._Bucket, ptr %86, i64 1
  %88 = getelementptr inbounds %struct._Bucket, ptr %87, i32 0, i32 0
  store ptr %88, ptr %34, align 8
  %89 = load ptr, ptr %37, align 8
  %90 = getelementptr inbounds %struct._Bucket, ptr %89, i32 0, i32 1
  %91 = load i64, ptr %90, align 8
  store i64 %91, ptr %30, align 8
  %92 = load ptr, ptr %37, align 8
  %93 = getelementptr inbounds %struct._Bucket, ptr %92, i32 0, i32 2
  %94 = load ptr, ptr %93, align 8
  store ptr %94, ptr %31, align 8
  br label %95

95:                                               ; preds = %84, %77
  %96 = load ptr, ptr %36, align 8
  store ptr %96, ptr %22, align 8
  %97 = load ptr, ptr %22, align 8
  %98 = getelementptr inbounds %struct._zval_struct, ptr %97, i32 0, i32 1
  %99 = load i8, ptr %98, align 8
  %100 = zext i8 %99 to i32
  %101 = icmp eq i32 %100, 0
  %102 = xor i1 %101, true
  %103 = xor i1 %102, true
  %104 = zext i1 %103 to i32
  %105 = sext i32 %104 to i64
  %106 = icmp ne i64 %105, 0
  br i1 %106, label %107, label %108

107:                                              ; preds = %95
  br label %237

108:                                              ; preds = %95
  %109 = load i64, ptr %30, align 8
  store i64 %109, ptr %26, align 8
  %110 = load ptr, ptr %31, align 8
  store ptr %110, ptr %25, align 8
  %111 = load ptr, ptr %25, align 8
  %112 = icmp eq ptr %111, null
  br i1 %112, label %113, label %115

113:                                              ; preds = %108
  %114 = load i64, ptr %26, align 8
  call void (ptr, i32, ptr, ...) @php_error_docref(ptr noundef null, i32 noundef 2, ptr noundef @.str.3, i64 noundef %114)
  br label %237

115:                                              ; preds = %108
  %116 = load ptr, ptr %25, align 8
  %117 = call ptr @php_get_session_var(ptr noundef %116)
  store ptr %117, ptr %27, align 8
  %118 = icmp ne ptr %117, null
  br i1 %118, label %119, label %236

119:                                              ; preds = %115
  %120 = load ptr, ptr %25, align 8
  %121 = getelementptr inbounds %struct._zend_string, ptr %120, i32 0, i32 2
  %122 = load i64, ptr %121, align 8
  %123 = icmp ugt i64 %122, 127
  br i1 %123, label %124, label %125

124:                                              ; preds = %119
  br label %237

125:                                              ; preds = %119
  %126 = load ptr, ptr %25, align 8
  %127 = getelementptr inbounds %struct._zend_string, ptr %126, i32 0, i32 2
  %128 = load i64, ptr %127, align 8
  %129 = trunc i64 %128 to i8
  store ptr %23, ptr %20, align 8
  store i8 %129, ptr %21, align 1
  %130 = load ptr, ptr %20, align 8
  %131 = load i8, ptr %21, align 1
  store ptr %130, ptr %12, align 8
  store i8 %131, ptr %13, align 1
  store i8 0, ptr %14, align 1
  %132 = load ptr, ptr %12, align 8
  %133 = load i8, ptr %14, align 1
  %134 = trunc i8 %133 to i1
  store ptr %132, ptr %9, align 8
  store i64 1, ptr %10, align 8
  %135 = zext i1 %134 to i8
  store i8 %135, ptr %11, align 1
  %136 = load ptr, ptr %9, align 8
  %137 = load ptr, ptr %136, align 8
  %138 = icmp ne ptr %137, null
  %139 = xor i1 %138, true
  br i1 %139, label %140, label %141

140:                                              ; preds = %125
  br label %154

141:                                              ; preds = %125
  %142 = load ptr, ptr %9, align 8
  %143 = load ptr, ptr %142, align 8
  %144 = getelementptr inbounds %struct._zend_string, ptr %143, i32 0, i32 2
  %145 = load i64, ptr %144, align 8
  %146 = load i64, ptr %10, align 8
  %147 = add i64 %146, %145
  store i64 %147, ptr %10, align 8
  %148 = load i64, ptr %10, align 8
  %149 = load ptr, ptr %9, align 8
  %150 = getelementptr inbounds %struct.smart_str, ptr %149, i32 0, i32 1
  %151 = load i64, ptr %150, align 8
  %152 = icmp uge i64 %148, %151
  br i1 %152, label %153, label %164

153:                                              ; preds = %141
  br label %154

154:                                              ; preds = %153, %140
  %155 = load i8, ptr %11, align 1
  %156 = trunc i8 %155 to i1
  br i1 %156, label %157, label %160

157:                                              ; preds = %154
  %158 = load ptr, ptr %9, align 8
  %159 = load i64, ptr %10, align 8
  call void @smart_str_realloc(ptr noundef %158, i64 noundef %159) #14
  br label %163

160:                                              ; preds = %154
  %161 = load ptr, ptr %9, align 8
  %162 = load i64, ptr %10, align 8
  call void @smart_str_erealloc(ptr noundef %161, i64 noundef %162) #14
  br label %163

163:                                              ; preds = %160, %157
  br label %164

164:                                              ; preds = %163, %141
  %165 = load i64, ptr %10, align 8
  store i64 %165, ptr %15, align 8
  %166 = load i8, ptr %13, align 1
  %167 = load ptr, ptr %12, align 8
  %168 = load ptr, ptr %167, align 8
  %169 = getelementptr inbounds %struct._zend_string, ptr %168, i32 0, i32 3
  %170 = load i64, ptr %15, align 8
  %171 = sub i64 %170, 1
  %172 = getelementptr inbounds [1 x i8], ptr %169, i64 0, i64 %171
  store i8 %166, ptr %172, align 1
  %173 = load i64, ptr %15, align 8
  %174 = load ptr, ptr %12, align 8
  %175 = load ptr, ptr %174, align 8
  %176 = getelementptr inbounds %struct._zend_string, ptr %175, i32 0, i32 2
  store i64 %173, ptr %176, align 8
  %177 = load ptr, ptr %25, align 8
  %178 = getelementptr inbounds %struct._zend_string, ptr %177, i32 0, i32 3
  %179 = getelementptr inbounds [1 x i8], ptr %178, i64 0, i64 0
  %180 = load ptr, ptr %25, align 8
  %181 = getelementptr inbounds %struct._zend_string, ptr %180, i32 0, i32 2
  %182 = load i64, ptr %181, align 8
  store ptr %23, ptr %17, align 8
  store ptr %179, ptr %18, align 8
  store i64 %182, ptr %19, align 8
  %183 = load ptr, ptr %17, align 8
  %184 = load ptr, ptr %18, align 8
  %185 = load i64, ptr %19, align 8
  store ptr %183, ptr %4, align 8
  store ptr %184, ptr %5, align 8
  store i64 %185, ptr %6, align 8
  store i8 0, ptr %7, align 1
  %186 = load ptr, ptr %4, align 8
  %187 = load i64, ptr %6, align 8
  %188 = load i8, ptr %7, align 1
  %189 = trunc i8 %188 to i1
  store ptr %186, ptr %1, align 8
  store i64 %187, ptr %2, align 8
  %190 = zext i1 %189 to i8
  store i8 %190, ptr %3, align 1
  %191 = load ptr, ptr %1, align 8
  %192 = load ptr, ptr %191, align 8
  %193 = icmp ne ptr %192, null
  %194 = xor i1 %193, true
  br i1 %194, label %195, label %196

195:                                              ; preds = %164
  br label %209

196:                                              ; preds = %164
  %197 = load ptr, ptr %1, align 8
  %198 = load ptr, ptr %197, align 8
  %199 = getelementptr inbounds %struct._zend_string, ptr %198, i32 0, i32 2
  %200 = load i64, ptr %199, align 8
  %201 = load i64, ptr %2, align 8
  %202 = add i64 %201, %200
  store i64 %202, ptr %2, align 8
  %203 = load i64, ptr %2, align 8
  %204 = load ptr, ptr %1, align 8
  %205 = getelementptr inbounds %struct.smart_str, ptr %204, i32 0, i32 1
  %206 = load i64, ptr %205, align 8
  %207 = icmp uge i64 %203, %206
  br i1 %207, label %208, label %219

208:                                              ; preds = %196
  br label %209

209:                                              ; preds = %208, %195
  %210 = load i8, ptr %3, align 1
  %211 = trunc i8 %210 to i1
  br i1 %211, label %212, label %215

212:                                              ; preds = %209
  %213 = load ptr, ptr %1, align 8
  %214 = load i64, ptr %2, align 8
  call void @smart_str_realloc(ptr noundef %213, i64 noundef %214) #14
  br label %218

215:                                              ; preds = %209
  %216 = load ptr, ptr %1, align 8
  %217 = load i64, ptr %2, align 8
  call void @smart_str_erealloc(ptr noundef %216, i64 noundef %217) #14
  br label %218

218:                                              ; preds = %215, %212
  br label %219

219:                                              ; preds = %218, %196
  %220 = load i64, ptr %2, align 8
  store i64 %220, ptr %8, align 8
  %221 = load ptr, ptr %4, align 8
  %222 = load ptr, ptr %221, align 8
  %223 = getelementptr inbounds %struct._zend_string, ptr %222, i32 0, i32 3
  %224 = load ptr, ptr %4, align 8
  %225 = load ptr, ptr %224, align 8
  %226 = getelementptr inbounds %struct._zend_string, ptr %225, i32 0, i32 2
  %227 = load i64, ptr %226, align 8
  %228 = getelementptr inbounds i8, ptr %223, i64 %227
  %229 = load ptr, ptr %5, align 8
  %230 = load i64, ptr %6, align 8
  call void @llvm.memcpy.p0.p0.i64(ptr align 1 %228, ptr align 1 %229, i64 %230, i1 false)
  %231 = load i64, ptr %8, align 8
  %232 = load ptr, ptr %4, align 8
  %233 = load ptr, ptr %232, align 8
  %234 = getelementptr inbounds %struct._zend_string, ptr %233, i32 0, i32 2
  store i64 %231, ptr %234, align 8
  %235 = load ptr, ptr %27, align 8
  call void @php_var_serialize(ptr noundef %23, ptr noundef %235, ptr noundef %24)
  br label %236

236:                                              ; preds = %219, %115
  br label %237

237:                                              ; preds = %236, %124, %113, %107
  %238 = load i32, ptr %35, align 4
  %239 = add i32 %238, -1
  store i32 %239, ptr %35, align 4
  br label %67

240:                                              ; preds = %67
  br label %241

241:                                              ; preds = %240
  br label %242

242:                                              ; preds = %241
  store ptr %23, ptr %16, align 8
  %243 = load ptr, ptr %16, align 8
  %244 = load ptr, ptr %243, align 8
  %245 = icmp ne ptr %244, null
  br i1 %245, label %246, label %255

246:                                              ; preds = %242
  %247 = load ptr, ptr %16, align 8
  %248 = load ptr, ptr %247, align 8
  %249 = getelementptr inbounds %struct._zend_string, ptr %248, i32 0, i32 3
  %250 = load ptr, ptr %16, align 8
  %251 = load ptr, ptr %250, align 8
  %252 = getelementptr inbounds %struct._zend_string, ptr %251, i32 0, i32 2
  %253 = load i64, ptr %252, align 8
  %254 = getelementptr inbounds [1 x i8], ptr %249, i64 0, i64 %253
  store i8 0, ptr %254, align 1
  br label %255

255:                                              ; preds = %246, %242
  %256 = load ptr, ptr %24, align 8
  call void @php_var_serialize_destroy(ptr noundef %256)
  %257 = getelementptr inbounds %struct.smart_str, ptr %23, i32 0, i32 0
  %258 = load ptr, ptr %257, align 8
  ret ptr %258
}