; Function Attrs: nounwind uwtable
define hidden ptr @ps_srlzr_encode_php_binary() #0 {
  %1 = alloca %struct.smart_str, align 8
  %2 = alloca ptr, align 8
  call void @llvm.memset.p0.i64(ptr noundef nonnull align 8 dereferenceable(16) %1, i8 0, i64 16, i1 false)
  %3 = tail call ptr @php_var_serialize_init() #23
  store ptr %3, ptr %2, align 8
  %4 = load ptr, ptr getelementptr inbounds (%struct._php_ps_globals, ptr @ps_globals, i64 0, i32 35), align 8
  %5 = getelementptr inbounds i8, ptr %4, i64 8
  %6 = load ptr, ptr %5, align 8
  %7 = getelementptr inbounds i8, ptr %6, i64 8
  %8 = getelementptr inbounds i8, ptr %6, i64 24
  %9 = load i32, ptr %8, align 8
  %.not101 = icmp eq i32 %9, 0
  br i1 %.not101, label %._crit_edge.thread, label %.lr.ph

.lr.ph:                                           ; preds = %0
  %10 = getelementptr inbounds i8, ptr %6, i64 16
  %11 = load ptr, ptr %10, align 8
  %12 = getelementptr inbounds i8, ptr %1, i64 8
  br label %13

13:                                               ; preds = %.lr.ph, %php_get_session_var.exit.thread
  %.077105 = phi i32 [ %9, %.lr.ph ], [ %76, %php_get_session_var.exit.thread ]
  %.078104 = phi ptr [ %11, %.lr.ph ], [ %.179, %php_get_session_var.exit.thread ]
  %.081103 = phi i32 [ 0, %.lr.ph ], [ %.182, %php_get_session_var.exit.thread ]
  %.083102 = phi ptr [ null, %.lr.ph ], [ %.184, %php_get_session_var.exit.thread ]
  %14 = load i32, ptr %7, align 8
  %15 = and i32 %14, 4
  %.not93 = icmp eq i32 %15, 0
  br i1 %.not93, label %20, label %16

16:                                               ; preds = %13
  %17 = getelementptr inbounds i8, ptr %.078104, i64 16
  %18 = zext i32 %.081103 to i64
  %19 = add i32 %.081103, 1
  br label %26

20:                                               ; preds = %13
  %21 = getelementptr inbounds i8, ptr %.078104, i64 32
  %22 = getelementptr inbounds i8, ptr %.078104, i64 16
  %23 = load i64, ptr %22, align 8
  %24 = getelementptr inbounds i8, ptr %.078104, i64 24
  %25 = load ptr, ptr %24, align 8
  br label %26

26:                                               ; preds = %20, %16
  %.184 = phi ptr [ %.083102, %16 ], [ %25, %20 ]
  %.182 = phi i32 [ %19, %16 ], [ %.081103, %20 ]
  %.080 = phi i64 [ %18, %16 ], [ %23, %20 ]
  %.179 = phi ptr [ %17, %16 ], [ %21, %20 ]
  %27 = getelementptr inbounds i8, ptr %.078104, i64 8
  %28 = load i8, ptr %27, align 8
  %29 = icmp eq i8 %28, 0
  br i1 %29, label %php_get_session_var.exit.thread, label %30

30:                                               ; preds = %26
  %31 = icmp eq ptr %.184, null
  br i1 %31, label %32, label %33

32:                                               ; preds = %30
  call void (ptr, i32, ptr, ...) @php_error_docref(ptr noundef null, i32 noundef 2, ptr noundef nonnull @.str.3, i64 noundef %.080) #23
  br label %php_get_session_var.exit.thread

33:                                               ; preds = %30
  %34 = load i8, ptr getelementptr inbounds (%struct._php_ps_globals, ptr @ps_globals, i64 0, i32 35, i32 1), align 16
  %35 = icmp eq i8 %34, 10
  br i1 %35, label %36, label %php_get_session_var.exit.thread

36:                                               ; preds = %33
  %37 = load ptr, ptr getelementptr inbounds (%struct._php_ps_globals, ptr @ps_globals, i64 0, i32 35), align 8
  %38 = getelementptr inbounds i8, ptr %37, i64 16
  %39 = load i8, ptr %38, align 8
  %40 = icmp eq i8 %39, 7
  br i1 %40, label %php_get_session_var.exit, label %php_get_session_var.exit.thread

php_get_session_var.exit:                         ; preds = %36
  %41 = getelementptr inbounds i8, ptr %37, i64 8
  %42 = load ptr, ptr %41, align 8
  %43 = call ptr @zend_hash_find(ptr noundef %42, ptr noundef nonnull %.184) #23
  %.not94 = icmp eq ptr %43, null
  br i1 %.not94, label %php_get_session_var.exit.thread, label %44

44:                                               ; preds = %php_get_session_var.exit
  %45 = getelementptr inbounds i8, ptr %.184, i64 16
  %46 = load i64, ptr %45, align 8
  %47 = icmp ugt i64 %46, 127
  br i1 %47, label %php_get_session_var.exit.thread, label %48

48:                                               ; preds = %44
  %49 = trunc i64 %46 to i8
  %50 = load ptr, ptr %1, align 8
  %.not95 = icmp eq ptr %50, null
  br i1 %.not95, label %56, label %51

51:                                               ; preds = %48
  %52 = getelementptr inbounds i8, ptr %50, i64 16
  %53 = load i64, ptr %52, align 8
  %54 = add i64 %53, 1
  %55 = load i64, ptr %12, align 8
  %.not96 = icmp ult i64 %54, %55
  br i1 %.not96, label %57, label %56

56:                                               ; preds = %48, %51
  %.075 = phi i64 [ 1, %48 ], [ %54, %51 ]
  call void @smart_str_erealloc(ptr noundef nonnull %1, i64 noundef %.075) #23
  %.pre = load ptr, ptr %1, align 8
  br label %57

57:                                               ; preds = %51, %56
  %58 = phi ptr [ %.pre, %56 ], [ %50, %51 ]
  %.176 = phi i64 [ %.075, %56 ], [ %54, %51 ]
  %59 = getelementptr inbounds i8, ptr %58, i64 24
  %60 = add i64 %.176, -1
  %61 = getelementptr inbounds [1 x i8], ptr %59, i64 0, i64 %60
  store i8 %49, ptr %61, align 1
  %62 = load ptr, ptr %1, align 8
  %63 = getelementptr inbounds i8, ptr %62, i64 16
  store i64 %.176, ptr %63, align 8
  %64 = getelementptr inbounds i8, ptr %.184, i64 24
  %65 = load i64, ptr %45, align 8
  %66 = add i64 %65, %.176
  %67 = load i64, ptr %12, align 8
  %.not98 = icmp ult i64 %66, %67
  br i1 %.not98, label %69, label %68

68:                                               ; preds = %57
  call void @smart_str_erealloc(ptr noundef nonnull %1, i64 noundef %66) #23
  %.pre106 = load ptr, ptr %1, align 8
  %.phi.trans.insert = getelementptr inbounds i8, ptr %.pre106, i64 16
  %.pre107 = load i64, ptr %.phi.trans.insert, align 8
  br label %69

69:                                               ; preds = %68, %57
  %70 = phi i64 [ %.pre107, %68 ], [ %.176, %57 ]
  %71 = phi ptr [ %.pre106, %68 ], [ %62, %57 ]
  %72 = getelementptr inbounds i8, ptr %71, i64 24
  %73 = getelementptr inbounds i8, ptr %72, i64 %70
  call void @llvm.memcpy.p0.p0.i64(ptr nonnull align 1 %73, ptr nonnull align 1 %64, i64 %65, i1 false)
  %74 = load ptr, ptr %1, align 8
  %75 = getelementptr inbounds i8, ptr %74, i64 16
  store i64 %66, ptr %75, align 8
  call void @php_var_serialize(ptr noundef nonnull %1, ptr noundef nonnull %43, ptr noundef nonnull %2) #23
  br label %php_get_session_var.exit.thread

php_get_session_var.exit.thread:                  ; preds = %33, %36, %php_get_session_var.exit, %69, %44, %26, %32
  %76 = add i32 %.077105, -1
  %.not = icmp eq i32 %76, 0
  br i1 %.not, label %._crit_edge, label %13

._crit_edge:                                      ; preds = %php_get_session_var.exit.thread
  %.pre108 = load ptr, ptr %1, align 8
  %.not92 = icmp eq ptr %.pre108, null
  br i1 %.not92, label %._crit_edge.thread, label %77

77:                                               ; preds = %._crit_edge
  %78 = getelementptr inbounds i8, ptr %.pre108, i64 24
  %79 = getelementptr inbounds i8, ptr %.pre108, i64 16
  %80 = load i64, ptr %79, align 8
  %81 = getelementptr inbounds [1 x i8], ptr %78, i64 0, i64 %80
  store i8 0, ptr %81, align 1
  br label %._crit_edge.thread

._crit_edge.thread:                               ; preds = %0, %77, %._crit_edge
  %82 = load ptr, ptr %2, align 8
  call void @php_var_serialize_destroy(ptr noundef %82) #23
  %83 = load ptr, ptr %1, align 8
  ret ptr %83
}